target datalayout = "e-m:e-p270:32:32-p271:32:32-p272:64:64-i64:64-i128:128-f80:128-n8:16:32:64-S128"
target triple = "x86_64-pc-linux-gnu"

%struct.ossl_method_store_st = type { ptr, ptr, ptr, ptr, i64, i32 }
%struct.ALGORITHM = type { i32, ptr, ptr }
%struct.METHOD = type { ptr, ptr, ptr }
%struct.QUERY = type { ptr, ptr, %struct.METHOD, [1 x i8] }

; Function Attrs: inlinehint nounwind uwtable
define internal ptr @ossl_sa_ALGORITHM_get(ptr noundef %0, i64 noundef %1) #3 {
  %3 = alloca ptr, align 8
  %4 = alloca i64, align 8
  store ptr %0, ptr %3, align 8, !tbaa !25
  store i64 %1, ptr %4, align 8, !tbaa !26
  %5 = load ptr, ptr %3, align 8, !tbaa !25
  %6 = load i64, ptr %4, align 8, !tbaa !26
  %7 = call ptr @ossl_sa_get(ptr noundef %5, i64 noundef %6)
  ret ptr %7
}

; Function Attrs: nounwind uwtable
define internal i32 @ossl_property_unlock(ptr noundef %0) #0 {
  %2 = alloca ptr, align 8
  store ptr %0, ptr %2, align 8, !tbaa !16
  %3 = load ptr, ptr %2, align 8, !tbaa !16
  %4 = icmp ne ptr %3, null
  br i1 %4, label %5, label %10

5:                                                ; preds = %1
  %6 = load ptr, ptr %2, align 8, !tbaa !16
  %7 = getelementptr inbounds nuw %struct.ossl_method_store_st, ptr %6, i32 0, i32 2
  %8 = load ptr, ptr %7, align 8, !tbaa !23
  %9 = call i32 @CRYPTO_THREAD_unlock(ptr noundef %8)
  br label %11

10:                                               ; preds = %1
  br label %11

11:                                               ; preds = %10, %5
  %12 = phi i32 [ %9, %5 ], [ 0, %10 ]
  ret i32 %12
}

; Function Attrs: nounwind uwtable
define internal i32 @ossl_method_up_ref(ptr noundef %0) #0 {
  %2 = alloca ptr, align 8
  store ptr %0, ptr %2, align 8, !tbaa !3
  %3 = load ptr, ptr %2, align 8, !tbaa !3
  %4 = getelementptr inbounds nuw %struct.METHOD, ptr %3, i32 0, i32 1
  %5 = load ptr, ptr %4, align 8, !tbaa !48
  %6 = load ptr, ptr %2, align 8, !tbaa !3
  %7 = getelementptr inbounds nuw %struct.METHOD, ptr %6, i32 0, i32 0
  %8 = load ptr, ptr %7, align 8, !tbaa !49
  %9 = call i32 %5(ptr noundef %8)
  ret i32 %9
}

; Function Attrs: inlinehint nounwind uwtable
define internal ptr @lh_QUERY_retrieve(ptr noundef %0, ptr noundef %1) #3 {
  %3 = alloca ptr, align 8
  %4 = alloca ptr, align 8
  store ptr %0, ptr %3, align 8, !tbaa !74
  store ptr %1, ptr %4, align 8, !tbaa !3
  %5 = load ptr, ptr %3, align 8, !tbaa !74
  %6 = load ptr, ptr %4, align 8, !tbaa !3
  %7 = call ptr @OPENSSL_LH_retrieve(ptr noundef %5, ptr noundef %6)
  ret ptr %7
}

; Function Attrs: nounwind uwtable
define internal ptr @ossl_method_store_retrieve(ptr noundef %0, i32 noundef %1) #0 {
  %3 = alloca ptr, align 8
  %4 = alloca i32, align 4
  store ptr %0, ptr %3, align 8, !tbaa !16
  store i32 %1, ptr %4, align 4, !tbaa !15
  %5 = load ptr, ptr %3, align 8, !tbaa !16
  %6 = getelementptr inbounds nuw %struct.ossl_method_store_st, ptr %5, i32 0, i32 1
  %7 = load ptr, ptr %6, align 8, !tbaa !22
  %8 = load i32, ptr %4, align 4, !tbaa !15
  %9 = sext i32 %8 to i64
  %10 = call ptr @ossl_sa_ALGORITHM_get(ptr noundef %7, i64 noundef %9)
  ret ptr %10
}

; Function Attrs: nounwind uwtable
define internal i32 @ossl_property_read_lock(ptr noundef %0) #0 {
  %2 = alloca ptr, align 8
  store ptr %0, ptr %2, align 8, !tbaa !16
  %3 = load ptr, ptr %2, align 8, !tbaa !16
  %4 = icmp ne ptr %3, null
  br i1 %4, label %5, label %10

5:                                                ; preds = %1
  %6 = load ptr, ptr %2, align 8, !tbaa !16
  %7 = getelementptr inbounds nuw %struct.ossl_method_store_st, ptr %6, i32 0, i32 2
  %8 = load ptr, ptr %7, align 8, !tbaa !23
  %9 = call i32 @CRYPTO_THREAD_read_lock(ptr noundef %8)
  br label %11

10:                                               ; preds = %1
  br label %11

11:                                               ; preds = %10, %5
  %12 = phi i32 [ %9, %5 ], [ 0, %10 ]
  ret i32 %12
}

; Function Attrs: nounwind uwtable
define i32 @ossl_method_store_cache_get(ptr noundef %0, ptr noundef %1, i32 noundef %2, ptr noundef %3, ptr noundef %4) #0 {
  %6 = alloca i32, align 4
  %7 = alloca ptr, align 8
  %8 = alloca ptr, align 8
  %9 = alloca i32, align 4
  %10 = alloca ptr, align 8
  %11 = alloca ptr, align 8
  %12 = alloca ptr, align 8
  %13 = alloca %struct.QUERY, align 8
  %14 = alloca ptr, align 8
  %15 = alloca i32, align 4
  %16 = alloca i32, align 4
  store ptr %0, ptr %7, align 8, !tbaa !16
  store ptr %1, ptr %8, align 8, !tbaa !32
  store i32 %2, ptr %9, align 4, !tbaa !15
  store ptr %3, ptr %10, align 8, !tbaa !34
  store ptr %4, ptr %11, align 8, !tbaa !3
  call void @llvm.lifetime.start.p0(i64 8, ptr %12) #7
  call void @llvm.lifetime.start.p0(i64 48, ptr %13) #7
  call void @llvm.lifetime.start.p0(i64 8, ptr %14) #7
  call void @llvm.lifetime.start.p0(i64 4, ptr %15) #7
  store i32 0, ptr %15, align 4, !tbaa !15
  %17 = load i32, ptr %9, align 4, !tbaa !15
  %18 = icmp sle i32 %17, 0
  br i1 %18, label %25, label %19

19:                                               ; preds = %5
  %20 = load ptr, ptr %7, align 8, !tbaa !16
  %21 = icmp eq ptr %20, null
  br i1 %21, label %25, label %22

22:                                               ; preds = %19
  %23 = load ptr, ptr %10, align 8, !tbaa !34
  %24 = icmp eq ptr %23, null
  br i1 %24, label %25, label %26

25:                                               ; preds = %22, %19, %5
  store i32 0, ptr %6, align 4
  store i32 1, ptr %16, align 4
  br label %66

26:                                               ; preds = %22
  %27 = load ptr, ptr %7, align 8, !tbaa !16
  %28 = call i32 @ossl_property_read_lock(ptr noundef %27)
  %29 = icmp ne i32 %28, 0
  br i1 %29, label %31, label %30

30:                                               ; preds = %26
  store i32 0, ptr %6, align 4
  store i32 1, ptr %16, align 4
  br label %66

31:                                               ; preds = %26
  %32 = load ptr, ptr %7, align 8, !tbaa !16
  %33 = load i32, ptr %9, align 4, !tbaa !15
  %34 = call ptr @ossl_method_store_retrieve(ptr noundef %32, i32 noundef %33)
  store ptr %34, ptr %12, align 8, !tbaa !3
  %35 = load ptr, ptr %12, align 8, !tbaa !3
  %36 = icmp eq ptr %35, null
  br i1 %36, label %37, label %38

37:                                               ; preds = %31
  br label %62

38:                                               ; preds = %31
  %39 = load ptr, ptr %10, align 8, !tbaa !34
  %40 = getelementptr inbounds nuw %struct.QUERY, ptr %13, i32 0, i32 1
  store ptr %39, ptr %40, align 8, !tbaa !50
  %41 = load ptr, ptr %8, align 8, !tbaa !32
  %42 = getelementptr inbounds nuw %struct.QUERY, ptr %13, i32 0, i32 0
  store ptr %41, ptr %42, align 8, !tbaa !52
  %43 = load ptr, ptr %12, align 8, !tbaa !3
  %44 = getelementptr inbounds nuw %struct.ALGORITHM, ptr %43, i32 0, i32 2
  %45 = load ptr, ptr %44, align 8, !tbaa !31
  %46 = call ptr @lh_QUERY_retrieve(ptr noundef %45, ptr noundef %13)
  store ptr %46, ptr %14, align 8, !tbaa !3
  %47 = load ptr, ptr %14, align 8, !tbaa !3
  %48 = icmp eq ptr %47, null
  br i1 %48, label %49, label %50

49:                                               ; preds = %38
  br label %62

50:                                               ; preds = %38
  %51 = load ptr, ptr %14, align 8, !tbaa !3
  %52 = getelementptr inbounds nuw %struct.QUERY, ptr %51, i32 0, i32 2
  %53 = call i32 @ossl_method_up_ref(ptr noundef %52)
  %54 = icmp ne i32 %53, 0
  br i1 %54, label %55, label %61

55:                                               ; preds = %50
  %56 = load ptr, ptr %14, align 8, !tbaa !3
  %57 = getelementptr inbounds nuw %struct.QUERY, ptr %56, i32 0, i32 2
  %58 = getelementptr inbounds nuw %struct.METHOD, ptr %57, i32 0, i32 0
  %59 = load ptr, ptr %58, align 8, !tbaa !73
  %60 = load ptr, ptr %11, align 8, !tbaa !3
  store ptr %59, ptr %60, align 8, !tbaa !3
  store i32 1, ptr %15, align 4, !tbaa !15
  br label %61

61:                                               ; preds = %55, %50
  br label %62

62:                                               ; preds = %61, %49, %37
  %63 = load ptr, ptr %7, align 8, !tbaa !16
  %64 = call i32 @ossl_property_unlock(ptr noundef %63)
  %65 = load i32, ptr %15, align 4, !tbaa !15
  store i32 %65, ptr %6, align 4
  store i32 1, ptr %16, align 4
  br label %66

66:                                               ; preds = %62, %30, %25
  call void @llvm.lifetime.end.p0(i64 4, ptr %15) #7
  call void @llvm.lifetime.end.p0(i64 8, ptr %14) #7
  call void @llvm.lifetime.end.p0(i64 48, ptr %13) #7
  call void @llvm.lifetime.end.p0(i64 8, ptr %12) #7
  %67 = load i32, ptr %6, align 4
  ret i32 %67
}