; Function Attrs: nounwind uwtable
define range(i32 0, 2) i32 @ossl_method_store_cache_get(ptr noundef readonly captures(address_is_null) %0, ptr noundef %1, i32 noundef %2, ptr noundef %3, ptr noundef writeonly captures(none) %4) local_unnamed_addr #0 {
  %6 = alloca %struct.QUERY, align 8
  call void @llvm.lifetime.start.p0(i64 48, ptr nonnull %6) #7
  %7 = icmp slt i32 %2, 1
  %8 = icmp eq ptr %0, null
  %or.cond = or i1 %8, %7
  %9 = icmp eq ptr %3, null
  %or.cond3 = or i1 %or.cond, %9
  br i1 %or.cond3, label %32, label %10

10:                                               ; preds = %5
  %11 = getelementptr i8, ptr %0, i64 16
  %.val28 = load ptr, ptr %11, align 8, !tbaa !16
  %12 = tail call i32 @CRYPTO_THREAD_read_lock(ptr noundef %.val28) #7
  %.not = icmp eq i32 %12, 0
  br i1 %.not, label %32, label %13

13:                                               ; preds = %10
  %14 = getelementptr i8, ptr %0, i64 8
  %.val27 = load ptr, ptr %14, align 8, !tbaa !15
  %15 = zext nneg i32 %2 to i64
  %16 = tail call ptr @ossl_sa_get(ptr noundef %.val27, i64 noundef range(i64 1, 2147483648) %15) #7
  %17 = icmp eq ptr %16, null
  br i1 %17, label %ossl_property_unlock.exit, label %18

18:                                               ; preds = %13
  %19 = getelementptr inbounds nuw i8, ptr %6, i64 8
  store ptr %3, ptr %19, align 8, !tbaa !38
  store ptr %1, ptr %6, align 8, !tbaa !41
  %20 = getelementptr inbounds nuw i8, ptr %16, i64 16
  %21 = load ptr, ptr %20, align 8, !tbaa !22
  %22 = call ptr @OPENSSL_LH_retrieve(ptr noundef %21, ptr noundef nonnull %6) #7
  %23 = icmp eq ptr %22, null
  br i1 %23, label %ossl_property_unlock.exit, label %24

24:                                               ; preds = %18
  %25 = getelementptr inbounds nuw i8, ptr %22, i64 16
  %.val = load ptr, ptr %25, align 8, !tbaa !36
  %26 = getelementptr i8, ptr %22, i64 24
  %.val26 = load ptr, ptr %26, align 8, !tbaa !54
  %27 = call i32 %.val26(ptr noundef %.val) #7
  %.not25 = icmp eq i32 %27, 0
  br i1 %.not25, label %ossl_property_unlock.exit, label %28

28:                                               ; preds = %24
  %29 = load ptr, ptr %25, align 8, !tbaa !56
  store ptr %29, ptr %4, align 8, !tbaa !55
  br label %ossl_property_unlock.exit

ossl_property_unlock.exit:                        ; preds = %24, %28, %18, %13
  %.0 = phi i32 [ 0, %13 ], [ 0, %18 ], [ 1, %28 ], [ 0, %24 ]
  %30 = load ptr, ptr %11, align 8, !tbaa !16
  %31 = call i32 @CRYPTO_THREAD_unlock(ptr noundef %30) #7
  br label %32

32:                                               ; preds = %10, %5, %ossl_property_unlock.exit
  %.019 = phi i32 [ %.0, %ossl_property_unlock.exit ], [ 0, %5 ], [ 0, %10 ]
  call void @llvm.lifetime.end.p0(i64 48, ptr nonnull %6) #7
  ret i32 %.019
}